
_interrupt:
	MOVWF      R15+0
	SWAPF      STATUS+0, 0
	CLRF       STATUS+0
	MOVWF      ___saveSTATUS+0
	MOVF       PCLATH+0, 0
	MOVWF      ___savePCLATH+0
	CLRF       PCLATH+0

;program.c,36 :: 		void interrupt() {
;program.c,37 :: 		if (INTCON.INTF == 1) {
	BTFSS      INTCON+0, 1
	GOTO       L_interrupt0
;program.c,38 :: 		t2 = 1;
	MOVLW      1
	MOVWF      _t2+0
	MOVLW      0
	MOVWF      _t2+1
;program.c,39 :: 		INTCON.INTF = 0;
	BCF        INTCON+0, 1
;program.c,40 :: 		}
L_interrupt0:
;program.c,41 :: 		if (INTCON.T0IF == 1) {
	BTFSS      INTCON+0, 2
	GOTO       L_interrupt1
;program.c,42 :: 		INTCON.T0IF = 0;
	BCF        INTCON+0, 2
;program.c,43 :: 		t0 = 1;
	MOVLW      1
	MOVWF      _t0+0
	MOVLW      0
	MOVWF      _t0+1
;program.c,44 :: 		}
L_interrupt1:
;program.c,45 :: 		if (INTCON.RBIF) {
	BTFSS      INTCON+0, 0
	GOTO       L_interrupt2
;program.c,46 :: 		if (PORTB.RB4) {
	BTFSS      PORTB+0, 4
	GOTO       L_interrupt3
;program.c,47 :: 		t1 = 1;
	MOVLW      1
	MOVWF      _t1+0
	MOVLW      0
	MOVWF      _t1+1
;program.c,48 :: 		}
L_interrupt3:
;program.c,49 :: 		INTCON.RBIF = 0;
	BCF        INTCON+0, 0
;program.c,50 :: 		}
L_interrupt2:
;program.c,51 :: 		}
L_end_interrupt:
L__interrupt34:
	MOVF       ___savePCLATH+0, 0
	MOVWF      PCLATH+0
	SWAPF      ___saveSTATUS+0, 0
	MOVWF      STATUS+0
	SWAPF      R15+0, 1
	SWAPF      R15+0, 0
	RETFIE
; end of _interrupt

_main:

;program.c,53 :: 		void main() {
;program.c,56 :: 		int prevs = 0;
;program.c,59 :: 		TRISA.RA0 = 1;
	BSF        TRISA+0, 0
;program.c,60 :: 		ADC_Init();
	CALL       _ADC_Init+0
;program.c,62 :: 		TRISB.RB3 = 0;
	BCF        TRISB+0, 3
;program.c,63 :: 		TRISB.RB5 = 0;
	BCF        TRISB+0, 5
;program.c,64 :: 		TRISB.RB1 = 0;
	BCF        TRISB+0, 1
;program.c,65 :: 		TRISB.RB2 = 0;
	BCF        TRISB+0, 2
;program.c,66 :: 		TRISB.RB0 = 1;
	BSF        TRISB+0, 0
;program.c,67 :: 		TRISB.RB4 = 1;
	BSF        TRISB+0, 4
;program.c,68 :: 		TRISC.RC3 = 0;
	BCF        TRISC+0, 3
;program.c,69 :: 		TRISC.RB7 = 1;
	BSF        TRISC+0, 7
;program.c,70 :: 		INTCON.GIE = 1;
	BSF        INTCON+0, 7
;program.c,71 :: 		INTCON.RBIE = 1;
	BSF        INTCON+0, 3
;program.c,72 :: 		INTCON.INTE = 1;
	BSF        INTCON+0, 4
;program.c,73 :: 		OPTION_REG = 0b00000111;
	MOVLW      7
	MOVWF      OPTION_REG+0
;program.c,74 :: 		TMR0 = 0;
	CLRF       TMR0+0
;program.c,75 :: 		NB = 61;
	MOVLW      61
	MOVWF      _NB+0
	MOVLW      0
	MOVWF      _NB+1
;program.c,77 :: 		Lcd_Init();
	CALL       _Lcd_Init+0
;program.c,79 :: 		GREEN = 0;
	BCF        PORTB+0, 5
;program.c,80 :: 		BLUE = 0;
	BCF        PORTB+0, 2
;program.c,81 :: 		RED = 0;
	BCF        PORTB+0, 1
;program.c,82 :: 		PORTB.RB3 = 0;
	BCF        PORTB+0, 3
;program.c,83 :: 		Sound_Init(&PORTC, 3);
	MOVLW      PORTC+0
	MOVWF      FARG_Sound_Init_snd_port+0
	MOVLW      3
	MOVWF      FARG_Sound_Init_snd_pin+0
	CALL       _Sound_Init+0
;program.c,85 :: 		counter = EEPROM_Read(0x33);
	MOVLW      51
	MOVWF      FARG_EEPROM_Read_Address+0
	CALL       _EEPROM_Read+0
	MOVF       R0+0, 0
	MOVWF      _counter+0
	CLRF       _counter+1
;program.c,87 :: 		while (1) {
L_main4:
;program.c,88 :: 		adcValue = (ADC_Read(0) / 10) - 1;
	CLRF       FARG_ADC_Read_channel+0
	CALL       _ADC_Read+0
	MOVLW      10
	MOVWF      R4+0
	MOVLW      0
	MOVWF      R4+1
	CALL       _Div_16X16_U+0
	MOVLW      1
	SUBWF      R0+0, 1
	BTFSS      STATUS+0, 0
	DECF       R0+1, 1
;program.c,89 :: 		level = (adcValue) * 10;
	MOVLW      10
	MOVWF      R4+0
	MOVLW      0
	MOVWF      R4+1
	CALL       _Mul_16X16_U+0
	MOVF       R0+0, 0
	MOVWF      _level+0
	MOVF       R0+1, 0
	MOVWF      _level+1
;program.c,91 :: 		if (t1 == 1 && test == 0) {
	MOVLW      0
	XORWF      _t1+1, 0
	BTFSS      STATUS+0, 2
	GOTO       L__main36
	MOVLW      1
	XORWF      _t1+0, 0
L__main36:
	BTFSS      STATUS+0, 2
	GOTO       L_main8
	MOVLW      0
	XORWF      _test+1, 0
	BTFSS      STATUS+0, 2
	GOTO       L__main37
	MOVLW      0
	XORWF      _test+0, 0
L__main37:
	BTFSS      STATUS+0, 2
	GOTO       L_main8
L__main32:
;program.c,92 :: 		SET_LOW(GREEN);
	BCF        PORTB+0, 5
;program.c,93 :: 		SET_HIGH(BLUE);
	BSF        PORTB+0, 2
;program.c,94 :: 		Lcd_Cmd(_LCD_CLEAR);
	MOVLW      1
	MOVWF      FARG_Lcd_Cmd_out_char+0
	CALL       _Lcd_Cmd+0
;program.c,95 :: 		Lcd_Out(2, 2, "Manual Pump");
	MOVLW      2
	MOVWF      FARG_Lcd_Out_row+0
	MOVLW      2
	MOVWF      FARG_Lcd_Out_column+0
	MOVLW      ?lstr1_program+0
	MOVWF      FARG_Lcd_Out_text+0
	CALL       _Lcd_Out+0
;program.c,96 :: 		PORTB.RB3 = 1;
	BSF        PORTB+0, 3
;program.c,97 :: 		test = 1;
	MOVLW      1
	MOVWF      _test+0
	MOVLW      0
	MOVWF      _test+1
;program.c,98 :: 		} else if (t0 == 1) {
	GOTO       L_main9
L_main8:
	MOVLW      0
	XORWF      _t0+1, 0
	BTFSS      STATUS+0, 2
	GOTO       L__main38
	MOVLW      1
	XORWF      _t0+0, 0
L__main38:
	BTFSS      STATUS+0, 2
	GOTO       L_main10
;program.c,99 :: 		NB--;
	MOVLW      1
	SUBWF      _NB+0, 1
	BTFSS      STATUS+0, 0
	DECF       _NB+1, 1
;program.c,100 :: 		if (NB == 0) {
	MOVLW      0
	XORWF      _NB+1, 0
	BTFSS      STATUS+0, 2
	GOTO       L__main39
	MOVLW      0
	XORWF      _NB+0, 0
L__main39:
	BTFSS      STATUS+0, 2
	GOTO       L_main11
;program.c,101 :: 		SET_HIGH(RED);
	BSF        PORTB+0, 1
;program.c,102 :: 		SET_LOW(BLUE);
	BCF        PORTB+0, 2
;program.c,103 :: 		SET_LOW(GREEN);
	BCF        PORTB+0, 5
;program.c,104 :: 		PORTB.RB3 = 1;
	BSF        PORTB+0, 3
;program.c,105 :: 		Lcd_Out(2, 2, "Critical Level");
	MOVLW      2
	MOVWF      FARG_Lcd_Out_row+0
	MOVLW      2
	MOVWF      FARG_Lcd_Out_column+0
	MOVLW      ?lstr2_program+0
	MOVWF      FARG_Lcd_Out_text+0
	CALL       _Lcd_Out+0
;program.c,106 :: 		prev1 = 0;
	CLRF       _prev1+0
	CLRF       _prev1+1
;program.c,107 :: 		prev = 1;
	MOVLW      1
	MOVWF      _prev+0
	MOVLW      0
	MOVWF      _prev+1
;program.c,108 :: 		NB = 61;
	MOVLW      61
	MOVWF      _NB+0
	MOVLW      0
	MOVWF      _NB+1
;program.c,109 :: 		TMR0 = 0;
	CLRF       TMR0+0
;program.c,110 :: 		t0 = 0;
	CLRF       _t0+0
	CLRF       _t0+1
;program.c,111 :: 		INTCON.T0IE = 0;
	BCF        INTCON+0, 5
;program.c,112 :: 		}
L_main11:
;program.c,113 :: 		} else if (t2 == 1) {
	GOTO       L_main12
L_main10:
	MOVLW      0
	XORWF      _t2+1, 0
	BTFSS      STATUS+0, 2
	GOTO       L__main40
	MOVLW      1
	XORWF      _t2+0, 0
L__main40:
	BTFSS      STATUS+0, 2
	GOTO       L_main13
;program.c,114 :: 		Lcd_Cmd(_LCD_CLEAR);
	MOVLW      1
	MOVWF      FARG_Lcd_Cmd_out_char+0
	CALL       _Lcd_Cmd+0
;program.c,115 :: 		Lcd_Out(1, 1, "RESET SYSTEM");
	MOVLW      1
	MOVWF      FARG_Lcd_Out_row+0
	MOVLW      1
	MOVWF      FARG_Lcd_Out_column+0
	MOVLW      ?lstr3_program+0
	MOVWF      FARG_Lcd_Out_text+0
	CALL       _Lcd_Out+0
;program.c,117 :: 		SET_HIGH(GREEN);
	BSF        PORTB+0, 5
;program.c,118 :: 		SET_LOW(RED);
	BCF        PORTB+0, 1
;program.c,119 :: 		SET_LOW(BLUE);
	BCF        PORTB+0, 2
;program.c,120 :: 		PORTB.RB3 = 0;
	BCF        PORTB+0, 3
;program.c,121 :: 		counter = 0;
	CLRF       _counter+0
	CLRF       _counter+1
;program.c,122 :: 		prev1 = 0;
	CLRF       _prev1+0
	CLRF       _prev1+1
;program.c,123 :: 		t2 = 0;
	CLRF       _t2+0
	CLRF       _t2+1
;program.c,124 :: 		t1 = 0;
	CLRF       _t1+0
	CLRF       _t1+1
;program.c,125 :: 		} else if (((level < 100) || (level > 1000)) && prev == 0) {
	GOTO       L_main14
L_main13:
	MOVLW      128
	XORWF      _level+1, 0
	MOVWF      R0+0
	MOVLW      128
	SUBWF      R0+0, 0
	BTFSS      STATUS+0, 2
	GOTO       L__main41
	MOVLW      100
	SUBWF      _level+0, 0
L__main41:
	BTFSS      STATUS+0, 0
	GOTO       L__main31
	MOVLW      128
	XORLW      3
	MOVWF      R0+0
	MOVLW      128
	XORWF      _level+1, 0
	SUBWF      R0+0, 0
	BTFSS      STATUS+0, 2
	GOTO       L__main42
	MOVF       _level+0, 0
	SUBLW      232
L__main42:
	BTFSS      STATUS+0, 0
	GOTO       L__main31
	GOTO       L_main19
L__main31:
	MOVLW      0
	XORWF      _prev+1, 0
	BTFSS      STATUS+0, 2
	GOTO       L__main43
	MOVLW      0
	XORWF      _prev+0, 0
L__main43:
	BTFSS      STATUS+0, 2
	GOTO       L_main19
L__main30:
;program.c,126 :: 		Sound_Play(2000,1000);
	MOVLW      208
	MOVWF      FARG_Sound_Play_freq_in_hz+0
	MOVLW      7
	MOVWF      FARG_Sound_Play_freq_in_hz+1
	MOVLW      232
	MOVWF      FARG_Sound_Play_duration_ms+0
	MOVLW      3
	MOVWF      FARG_Sound_Play_duration_ms+1
	CALL       _Sound_Play+0
;program.c,127 :: 		counter++;
	INCF       _counter+0, 1
	BTFSC      STATUS+0, 2
	INCF       _counter+1, 1
;program.c,128 :: 		INTCON.T0IE = 1;
	BSF        INTCON+0, 5
;program.c,129 :: 		EEPROM_Write(0x33, counter);
	MOVLW      51
	MOVWF      FARG_EEPROM_Write_Address+0
	MOVF       _counter+0, 0
	MOVWF      FARG_EEPROM_Write_data_+0
	CALL       _EEPROM_Write+0
;program.c,130 :: 		} else if (((level >= 100) && (level <= 1000)) && prev1 == 0) {
	GOTO       L_main20
L_main19:
	MOVLW      128
	XORWF      _level+1, 0
	MOVWF      R0+0
	MOVLW      128
	SUBWF      R0+0, 0
	BTFSS      STATUS+0, 2
	GOTO       L__main44
	MOVLW      100
	SUBWF      _level+0, 0
L__main44:
	BTFSS      STATUS+0, 0
	GOTO       L_main25
	MOVLW      128
	XORLW      3
	MOVWF      R0+0
	MOVLW      128
	XORWF      _level+1, 0
	SUBWF      R0+0, 0
	BTFSS      STATUS+0, 2
	GOTO       L__main45
	MOVF       _level+0, 0
	SUBLW      232
L__main45:
	BTFSS      STATUS+0, 0
	GOTO       L_main25
L__main29:
	MOVLW      0
	XORWF      _prev1+1, 0
	BTFSS      STATUS+0, 2
	GOTO       L__main46
	MOVLW      0
	XORWF      _prev1+0, 0
L__main46:
	BTFSS      STATUS+0, 2
	GOTO       L_main25
L__main28:
;program.c,131 :: 		Lcd_Cmd(_LCD_CLEAR);
	MOVLW      1
	MOVWF      FARG_Lcd_Cmd_out_char+0
	CALL       _Lcd_Cmd+0
;program.c,132 :: 		Lcd_Out(2, 2, "Normal level");
	MOVLW      2
	MOVWF      FARG_Lcd_Out_row+0
	MOVLW      2
	MOVWF      FARG_Lcd_Out_column+0
	MOVLW      ?lstr4_program+0
	MOVWF      FARG_Lcd_Out_text+0
	CALL       _Lcd_Out+0
;program.c,133 :: 		SET_LOW(RED);
	BCF        PORTB+0, 1
;program.c,134 :: 		SET_HIGH(GREEN);
	BSF        PORTB+0, 5
;program.c,135 :: 		SET_LOW(BLUE);
	BCF        PORTB+0, 2
;program.c,136 :: 		prev = 0;
	CLRF       _prev+0
	CLRF       _prev+1
;program.c,137 :: 		prev1 = 1;
	MOVLW      1
	MOVWF      _prev1+0
	MOVLW      0
	MOVWF      _prev1+1
;program.c,138 :: 		PORTB.RB3 = 0;
	BCF        PORTB+0, 3
;program.c,139 :: 		test = 0;
	CLRF       _test+0
	CLRF       _test+1
;program.c,140 :: 		}
L_main25:
L_main20:
L_main14:
L_main12:
L_main9:
;program.c,142 :: 		if (PORTB.RB7) {
	BTFSS      PORTB+0, 7
	GOTO       L_main26
;program.c,143 :: 		Lcd_Cmd(_LCD_CLEAR);
	MOVLW      1
	MOVWF      FARG_Lcd_Cmd_out_char+0
	CALL       _Lcd_Cmd+0
;program.c,144 :: 		IntToStr(counter, display);
	MOVF       _counter+0, 0
	MOVWF      FARG_IntToStr_input+0
	MOVF       _counter+1, 0
	MOVWF      FARG_IntToStr_input+1
	MOVLW      main_display_L0+0
	MOVWF      FARG_IntToStr_output+0
	CALL       _IntToStr+0
;program.c,145 :: 		Lcd_Out(1, 1, "Critical Count:");
	MOVLW      1
	MOVWF      FARG_Lcd_Out_row+0
	MOVLW      1
	MOVWF      FARG_Lcd_Out_column+0
	MOVLW      ?lstr5_program+0
	MOVWF      FARG_Lcd_Out_text+0
	CALL       _Lcd_Out+0
;program.c,146 :: 		Lcd_Out(2, 1, display);
	MOVLW      2
	MOVWF      FARG_Lcd_Out_row+0
	MOVLW      1
	MOVWF      FARG_Lcd_Out_column+0
	MOVLW      main_display_L0+0
	MOVWF      FARG_Lcd_Out_text+0
	CALL       _Lcd_Out+0
;program.c,147 :: 		delay_ms(2000);
	MOVLW      21
	MOVWF      R11+0
	MOVLW      75
	MOVWF      R12+0
	MOVLW      190
	MOVWF      R13+0
L_main27:
	DECFSZ     R13+0, 1
	GOTO       L_main27
	DECFSZ     R12+0, 1
	GOTO       L_main27
	DECFSZ     R11+0, 1
	GOTO       L_main27
	NOP
;program.c,148 :: 		}
L_main26:
;program.c,149 :: 		}
	GOTO       L_main4
;program.c,150 :: 		}
L_end_main:
	GOTO       $+0
; end of _main
